target datalayout = "e-m:e-p270:32:32-p271:32:32-p272:64:64-i64:64-i128:128-f80:128-n8:16:32:64-S128"
target triple = "x86_64-pc-linux-gnu"

%struct.AVRational = type { i32, i32 }
%struct.MOVTrack = type { i32, i32, i32, i32, i64, i64, i32, i64, i64, i64, i32, i32, i32, i32, i32, i32, i32, ptr, ptr, i32, i32, i32, ptr, ptr, ptr, i32, i32, i32, i32, i32, i64, i64, i64, i32, i64, i32, i32, ptr, i32, i64, i32, i64, i32, i32, %struct.HintSampleQueue, ptr, ptr, i64, i32, i32, i32, ptr, i32, %struct.anon, ptr, %struct.MOVMuxCencContext, [256 x i32], i32, i32, i32, %struct.PacketList, ptr, i32, i32, ptr }
%struct.HintSampleQueue = type { i32, i32, ptr }
%struct.anon = type { i32, i32, i32, i32, i32, i32, i32 }
%struct.MOVMuxCencContext = type { ptr, ptr, i64, i64, i32, i32, i16, i64, ptr, i64, ptr, i32, i32, ptr, %struct.CodedBitstreamFragment }
%struct.CodedBitstreamFragment = type { ptr, i64, i64, ptr, i32, i32, ptr }
%struct.PacketList = type { ptr, ptr }
%struct.AVCodecParameters = type { i32, i32, i32, ptr, i32, ptr, i32, i32, i64, i32, i32, i32, i32, i32, i32, %struct.AVRational, %struct.AVRational, i32, i32, i32, i32, i32, i32, i32, %struct.AVChannelLayout, i32, i32, i32, i32, i32, i32 }
%struct.AVChannelLayout = type { i32, i32, %union.anon, ptr }
%union.anon = type { i64 }

@.str.355 = private unnamed_addr constant [5 x i8] c"prof\00", align 1
@.str.458 = private unnamed_addr constant [5 x i8] c"tapt\00", align 1
@.str.459 = private unnamed_addr constant [5 x i8] c"clef\00", align 1
@.str.460 = private unnamed_addr constant [5 x i8] c"enof\00", align 1

; Function Attrs: nounwind uwtable
define internal i64 @update_size(ptr noundef %0, i64 noundef %1) #0 {
  %3 = alloca ptr, align 8
  %4 = alloca i64, align 8
  %5 = alloca i64, align 8
  store ptr %0, ptr %3, align 8, !tbaa !31
  store i64 %1, ptr %4, align 8, !tbaa !134
  call void @llvm.lifetime.start.p0(i64 8, ptr %5) #14
  %6 = load ptr, ptr %3, align 8, !tbaa !31
  %7 = call i64 @avio_tell(ptr noundef %6)
  store i64 %7, ptr %5, align 8, !tbaa !134
  %8 = load ptr, ptr %3, align 8, !tbaa !31
  %9 = load i64, ptr %4, align 8, !tbaa !134
  %10 = call i64 @avio_seek(ptr noundef %8, i64 noundef %9, i32 noundef 0)
  %11 = load ptr, ptr %3, align 8, !tbaa !31
  %12 = load i64, ptr %5, align 8, !tbaa !134
  %13 = load i64, ptr %4, align 8, !tbaa !134
  %14 = sub nsw i64 %12, %13
  %15 = trunc i64 %14 to i32
  call void @avio_wb32(ptr noundef %11, i32 noundef %15)
  %16 = load ptr, ptr %3, align 8, !tbaa !31
  %17 = load i64, ptr %5, align 8, !tbaa !134
  %18 = call i64 @avio_seek(ptr noundef %16, i64 noundef %17, i32 noundef 0)
  %19 = load i64, ptr %5, align 8, !tbaa !134
  %20 = load i64, ptr %4, align 8, !tbaa !134
  %21 = sub nsw i64 %19, %20
  call void @llvm.lifetime.end.p0(i64 8, ptr %5) #14
  ret i64 %21
}

; Function Attrs: alwaysinline nounwind uwtable
define internal void @ffio_wfourcc(ptr noundef %0, ptr noundef %1) #6 {
  %3 = alloca ptr, align 8
  %4 = alloca ptr, align 8
  store ptr %0, ptr %3, align 8, !tbaa !31
  store ptr %1, ptr %4, align 8, !tbaa !38
  %5 = load ptr, ptr %3, align 8, !tbaa !31
  %6 = load ptr, ptr %4, align 8, !tbaa !38
  %7 = getelementptr inbounds i8, ptr %6, i64 0
  %8 = load i8, ptr %7, align 1, !tbaa !85
  %9 = zext i8 %8 to i32
  %10 = load ptr, ptr %4, align 8, !tbaa !38
  %11 = getelementptr inbounds i8, ptr %10, i64 1
  %12 = load i8, ptr %11, align 1, !tbaa !85
  %13 = zext i8 %12 to i32
  %14 = shl i32 %13, 8
  %15 = or i32 %9, %14
  %16 = load ptr, ptr %4, align 8, !tbaa !38
  %17 = getelementptr inbounds i8, ptr %16, i64 2
  %18 = load i8, ptr %17, align 1, !tbaa !85
  %19 = zext i8 %18 to i32
  %20 = shl i32 %19, 16
  %21 = or i32 %15, %20
  %22 = load ptr, ptr %4, align 8, !tbaa !38
  %23 = getelementptr inbounds i8, ptr %22, i64 3
  %24 = load i8, ptr %23, align 1, !tbaa !85
  %25 = zext i8 %24 to i32
  %26 = shl i32 %25, 24
  %27 = or i32 %21, %26
  call void @avio_wl32(ptr noundef %5, i32 noundef %27)
  ret void
}

; Function Attrs: alwaysinline nounwind uwtable
define internal i64 @avio_tell(ptr noundef %0) #6 {
  %2 = alloca ptr, align 8
  store ptr %0, ptr %2, align 8, !tbaa !31
  %3 = load ptr, ptr %2, align 8, !tbaa !31
  %4 = call i64 @avio_seek(ptr noundef %3, i64 noundef 0, i32 noundef 1)
  ret i64 %4
}

; Function Attrs: nounwind uwtable
define internal i32 @mov_write_tapt_tag(ptr noundef %0, ptr noundef %1) #0 {
  %3 = alloca ptr, align 8
  %4 = alloca ptr, align 8
  %5 = alloca i32, align 4
  %6 = alloca i64, align 8
  store ptr %0, ptr %3, align 8, !tbaa !31
  store ptr %1, ptr %4, align 8, !tbaa !47
  call void @llvm.lifetime.start.p0(i64 4, ptr %5) #14
  %7 = load ptr, ptr %4, align 8, !tbaa !47
  %8 = getelementptr inbounds nuw %struct.MOVTrack, ptr %7, i32 0, i32 18
  %9 = load ptr, ptr %8, align 8, !tbaa !52
  %10 = getelementptr inbounds nuw %struct.AVCodecParameters, ptr %9, i32 0, i32 15
  %11 = getelementptr inbounds nuw %struct.AVRational, ptr %10, i32 0, i32 0
  %12 = load i32, ptr %11, align 8, !tbaa !399
  %13 = sext i32 %12 to i64
  %14 = load ptr, ptr %4, align 8, !tbaa !47
  %15 = getelementptr inbounds nuw %struct.MOVTrack, ptr %14, i32 0, i32 18
  %16 = load ptr, ptr %15, align 8, !tbaa !52
  %17 = getelementptr inbounds nuw %struct.AVCodecParameters, ptr %16, i32 0, i32 13
  %18 = load i32, ptr %17, align 8, !tbaa !222
  %19 = sext i32 %18 to i64
  %20 = load ptr, ptr %4, align 8, !tbaa !47
  %21 = getelementptr inbounds nuw %struct.MOVTrack, ptr %20, i32 0, i32 18
  %22 = load ptr, ptr %21, align 8, !tbaa !52
  %23 = getelementptr inbounds nuw %struct.AVCodecParameters, ptr %22, i32 0, i32 15
  %24 = getelementptr inbounds nuw %struct.AVRational, ptr %23, i32 0, i32 1
  %25 = load i32, ptr %24, align 4, !tbaa !400
  %26 = sext i32 %25 to i64
  %27 = call i64 @av_rescale(i64 noundef %13, i64 noundef %19, i64 noundef %26) #15
  %28 = trunc i64 %27 to i32
  store i32 %28, ptr %5, align 4, !tbaa !32
  call void @llvm.lifetime.start.p0(i64 8, ptr %6) #14
  %29 = load ptr, ptr %3, align 8, !tbaa !31
  %30 = call i64 @avio_tell(ptr noundef %29)
  store i64 %30, ptr %6, align 8, !tbaa !134
  %31 = load ptr, ptr %3, align 8, !tbaa !31
  call void @avio_wb32(ptr noundef %31, i32 noundef 0)
  %32 = load ptr, ptr %3, align 8, !tbaa !31
  call void @ffio_wfourcc(ptr noundef %32, ptr noundef @.str.458)
  %33 = load ptr, ptr %3, align 8, !tbaa !31
  call void @avio_wb32(ptr noundef %33, i32 noundef 20)
  %34 = load ptr, ptr %3, align 8, !tbaa !31
  call void @ffio_wfourcc(ptr noundef %34, ptr noundef @.str.459)
  %35 = load ptr, ptr %3, align 8, !tbaa !31
  call void @avio_wb32(ptr noundef %35, i32 noundef 0)
  %36 = load ptr, ptr %3, align 8, !tbaa !31
  %37 = load i32, ptr %5, align 4, !tbaa !32
  %38 = shl i32 %37, 16
  call void @avio_wb32(ptr noundef %36, i32 noundef %38)
  %39 = load ptr, ptr %3, align 8, !tbaa !31
  %40 = load ptr, ptr %4, align 8, !tbaa !47
  %41 = getelementptr inbounds nuw %struct.MOVTrack, ptr %40, i32 0, i32 18
  %42 = load ptr, ptr %41, align 8, !tbaa !52
  %43 = getelementptr inbounds nuw %struct.AVCodecParameters, ptr %42, i32 0, i32 14
  %44 = load i32, ptr %43, align 4, !tbaa !273
  %45 = shl i32 %44, 16
  call void @avio_wb32(ptr noundef %39, i32 noundef %45)
  %46 = load ptr, ptr %3, align 8, !tbaa !31
  call void @avio_wb32(ptr noundef %46, i32 noundef 20)
  %47 = load ptr, ptr %3, align 8, !tbaa !31
  call void @ffio_wfourcc(ptr noundef %47, ptr noundef @.str.355)
  %48 = load ptr, ptr %3, align 8, !tbaa !31
  call void @avio_wb32(ptr noundef %48, i32 noundef 0)
  %49 = load ptr, ptr %3, align 8, !tbaa !31
  %50 = load i32, ptr %5, align 4, !tbaa !32
  %51 = shl i32 %50, 16
  call void @avio_wb32(ptr noundef %49, i32 noundef %51)
  %52 = load ptr, ptr %3, align 8, !tbaa !31
  %53 = load ptr, ptr %4, align 8, !tbaa !47
  %54 = getelementptr inbounds nuw %struct.MOVTrack, ptr %53, i32 0, i32 18
  %55 = load ptr, ptr %54, align 8, !tbaa !52
  %56 = getelementptr inbounds nuw %struct.AVCodecParameters, ptr %55, i32 0, i32 14
  %57 = load i32, ptr %56, align 4, !tbaa !273
  %58 = shl i32 %57, 16
  call void @avio_wb32(ptr noundef %52, i32 noundef %58)
  %59 = load ptr, ptr %3, align 8, !tbaa !31
  call void @avio_wb32(ptr noundef %59, i32 noundef 20)
  %60 = load ptr, ptr %3, align 8, !tbaa !31
  call void @ffio_wfourcc(ptr noundef %60, ptr noundef @.str.460)
  %61 = load ptr, ptr %3, align 8, !tbaa !31
  call void @avio_wb32(ptr noundef %61, i32 noundef 0)
  %62 = load ptr, ptr %3, align 8, !tbaa !31
  %63 = load ptr, ptr %4, align 8, !tbaa !47
  %64 = getelementptr inbounds nuw %struct.MOVTrack, ptr %63, i32 0, i32 18
  %65 = load ptr, ptr %64, align 8, !tbaa !52
  %66 = getelementptr inbounds nuw %struct.AVCodecParameters, ptr %65, i32 0, i32 13
  %67 = load i32, ptr %66, align 8, !tbaa !222
  %68 = shl i32 %67, 16
  call void @avio_wb32(ptr noundef %62, i32 noundef %68)
  %69 = load ptr, ptr %3, align 8, !tbaa !31
  %70 = load ptr, ptr %4, align 8, !tbaa !47
  %71 = getelementptr inbounds nuw %struct.MOVTrack, ptr %70, i32 0, i32 18
  %72 = load ptr, ptr %71, align 8, !tbaa !52
  %73 = getelementptr inbounds nuw %struct.AVCodecParameters, ptr %72, i32 0, i32 14
  %74 = load i32, ptr %73, align 4, !tbaa !273
  %75 = shl i32 %74, 16
  call void @avio_wb32(ptr noundef %69, i32 noundef %75)
  %76 = load ptr, ptr %3, align 8, !tbaa !31
  %77 = load i64, ptr %6, align 8, !tbaa !134
  %78 = call i64 @update_size(ptr noundef %76, i64 noundef %77)
  %79 = trunc i64 %78 to i32
  call void @llvm.lifetime.end.p0(i64 8, ptr %6) #14
  call void @llvm.lifetime.end.p0(i64 4, ptr %5) #14
  ret i32 %79
}