; Function Attrs: nounwind uwtable
define internal fastcc void @mov_write_tapt_tag(ptr noundef %0, ptr noundef readonly captures(none) %1) unnamed_addr #0 {
  %3 = getelementptr inbounds nuw i8, ptr %1, i64 104
  %4 = load ptr, ptr %3, align 8, !tbaa !46
  %5 = getelementptr inbounds nuw i8, ptr %4, i64 80
  %6 = load i32, ptr %5, align 8, !tbaa !402
  %7 = sext i32 %6 to i64
  %8 = getelementptr inbounds nuw i8, ptr %4, i64 72
  %9 = load i32, ptr %8, align 8, !tbaa !181
  %10 = sext i32 %9 to i64
  %11 = getelementptr inbounds nuw i8, ptr %4, i64 84
  %12 = load i32, ptr %11, align 4, !tbaa !403
  %13 = sext i32 %12 to i64
  %14 = tail call i64 @av_rescale(i64 noundef %7, i64 noundef %10, i64 noundef %13) #19
  %15 = trunc i64 %14 to i32
  %16 = tail call i64 @avio_seek(ptr noundef %0, i64 noundef 0, i32 noundef 1) #16
  tail call void @avio_wb32(ptr noundef %0, i32 noundef 0) #16
  tail call void @avio_wl32(ptr noundef %0, i32 noundef 1953522036) #16
  tail call void @avio_wb32(ptr noundef %0, i32 noundef 20) #16
  tail call void @avio_wl32(ptr noundef %0, i32 noundef 1717922915) #16
  tail call void @avio_wb32(ptr noundef %0, i32 noundef 0) #16
  %17 = shl i32 %15, 16
  tail call void @avio_wb32(ptr noundef %0, i32 noundef %17) #16
  %18 = load ptr, ptr %3, align 8, !tbaa !46
  %19 = getelementptr inbounds nuw i8, ptr %18, i64 76
  %20 = load i32, ptr %19, align 4, !tbaa !183
  %21 = shl i32 %20, 16
  tail call void @avio_wb32(ptr noundef %0, i32 noundef %21) #16
  tail call void @avio_wb32(ptr noundef %0, i32 noundef 20) #16
  tail call void @avio_wl32(ptr noundef %0, i32 noundef 1718579824) #16
  tail call void @avio_wb32(ptr noundef %0, i32 noundef 0) #16
  tail call void @avio_wb32(ptr noundef %0, i32 noundef %17) #16
  %22 = load ptr, ptr %3, align 8, !tbaa !46
  %23 = getelementptr inbounds nuw i8, ptr %22, i64 76
  %24 = load i32, ptr %23, align 4, !tbaa !183
  %25 = shl i32 %24, 16
  tail call void @avio_wb32(ptr noundef %0, i32 noundef %25) #16
  tail call void @avio_wb32(ptr noundef %0, i32 noundef 20) #16
  tail call void @avio_wl32(ptr noundef %0, i32 noundef 1718578789) #16
  tail call void @avio_wb32(ptr noundef %0, i32 noundef 0) #16
  %26 = load ptr, ptr %3, align 8, !tbaa !46
  %27 = getelementptr inbounds nuw i8, ptr %26, i64 72
  %28 = load i32, ptr %27, align 8, !tbaa !181
  %29 = shl i32 %28, 16
  tail call void @avio_wb32(ptr noundef %0, i32 noundef %29) #16
  %30 = load ptr, ptr %3, align 8, !tbaa !46
  %31 = getelementptr inbounds nuw i8, ptr %30, i64 76
  %32 = load i32, ptr %31, align 4, !tbaa !183
  %33 = shl i32 %32, 16
  tail call void @avio_wb32(ptr noundef %0, i32 noundef %33) #16
  %34 = tail call i64 @avio_seek(ptr noundef %0, i64 noundef 0, i32 noundef 1) #16
  %35 = tail call i64 @avio_seek(ptr noundef %0, i64 noundef %16, i32 noundef 0) #16
  %36 = sub nsw i64 %34, %16
  %37 = trunc i64 %36 to i32
  tail call void @avio_wb32(ptr noundef %0, i32 noundef %37) #16
  %38 = tail call i64 @avio_seek(ptr noundef %0, i64 noundef %34, i32 noundef 0) #16
  ret void
}